target datalayout = "e-m:e-p270:32:32-p271:32:32-p272:64:64-i64:64-i128:128-f80:128-n8:16:32:64-S128"
target triple = "x86_64-pc-linux-gnu"

%struct.quic_rstream_st = type { %struct.sframe_list_st, ptr, ptr, %struct.uint_range_st, %struct.ring_buf }
%struct.sframe_list_st = type { ptr, ptr, i32, i64, i64, i32, i32 }
%struct.uint_range_st = type { i64, i64 }
%struct.ring_buf = type { ptr, i64, i64, i64 }

; Function Attrs: nounwind uwtable
define i32 @ossl_quic_rstream_available(ptr noundef %0, ptr noundef %1, ptr noundef %2) #0 {
  %4 = alloca ptr, align 8
  %5 = alloca ptr, align 8
  %6 = alloca ptr, align 8
  %7 = alloca ptr, align 8
  %8 = alloca %struct.uint_range_st, align 8
  %9 = alloca ptr, align 8
  %10 = alloca i64, align 8
  store ptr %0, ptr %4, align 8, !tbaa !12
  store ptr %1, ptr %5, align 8, !tbaa !36
  store ptr %2, ptr %6, align 8, !tbaa !38
  call void @llvm.lifetime.start.p0(i64 8, ptr %7) #8
  store ptr null, ptr %7, align 8, !tbaa !41
  call void @llvm.lifetime.start.p0(i64 16, ptr %8) #8
  call void @llvm.lifetime.start.p0(i64 8, ptr %9) #8
  call void @llvm.lifetime.start.p0(i64 8, ptr %10) #8
  store i64 0, ptr %10, align 8, !tbaa !10
  br label %11

11:                                               ; preds = %17, %3
  %12 = load ptr, ptr %4, align 8, !tbaa !12
  %13 = getelementptr inbounds nuw %struct.quic_rstream_st, ptr %12, i32 0, i32 0
  %14 = load ptr, ptr %6, align 8, !tbaa !38
  %15 = call i32 @ossl_sframe_list_peek(ptr noundef %13, ptr noundef %7, ptr noundef %8, ptr noundef %9, ptr noundef %14)
  %16 = icmp ne i32 %15, 0
  br i1 %16, label %17, label %25

17:                                               ; preds = %11
  %18 = getelementptr inbounds nuw %struct.uint_range_st, ptr %8, i32 0, i32 1
  %19 = load i64, ptr %18, align 8, !tbaa !35
  %20 = getelementptr inbounds nuw %struct.uint_range_st, ptr %8, i32 0, i32 0
  %21 = load i64, ptr %20, align 8, !tbaa !34
  %22 = sub i64 %19, %21
  %23 = load i64, ptr %10, align 8, !tbaa !10
  %24 = add i64 %23, %22
  store i64 %24, ptr %10, align 8, !tbaa !10
  br label %11, !llvm.loop !44

25:                                               ; preds = %11
  %26 = load i64, ptr %10, align 8, !tbaa !10
  %27 = load ptr, ptr %5, align 8, !tbaa !36
  store i64 %26, ptr %27, align 8, !tbaa !10
  call void @llvm.lifetime.end.p0(i64 8, ptr %10) #8
  call void @llvm.lifetime.end.p0(i64 8, ptr %9) #8
  call void @llvm.lifetime.end.p0(i64 16, ptr %8) #8
  call void @llvm.lifetime.end.p0(i64 8, ptr %7) #8
  ret i32 1
}