; Function Attrs: nounwind uwtable
define noundef i32 @ossl_quic_rstream_available(ptr noundef %0, ptr noundef writeonly captures(none) %1, ptr noundef %2) local_unnamed_addr #0 {
  %4 = alloca ptr, align 8
  %5 = alloca %struct.uint_range_st, align 8
  %6 = alloca ptr, align 8
  call void @llvm.lifetime.start.p0(i64 8, ptr nonnull %4) #10
  store ptr null, ptr %4, align 8, !tbaa !25
  call void @llvm.lifetime.start.p0(i64 16, ptr nonnull %5) #10
  call void @llvm.lifetime.start.p0(i64 8, ptr nonnull %6) #10
  %7 = call i32 @ossl_sframe_list_peek(ptr noundef %0, ptr noundef nonnull %4, ptr noundef nonnull %5, ptr noundef nonnull %6, ptr noundef %2) #10
  %.not4 = icmp eq i32 %7, 0
  br i1 %.not4, label %._crit_edge, label %.lr.ph

.lr.ph:                                           ; preds = %3
  %8 = getelementptr inbounds nuw i8, ptr %5, i64 8
  br label %9

9:                                                ; preds = %.lr.ph, %9
  %.05 = phi i64 [ 0, %.lr.ph ], [ %13, %9 ]
  %10 = load i64, ptr %8, align 8, !tbaa !23
  %11 = load i64, ptr %5, align 8, !tbaa !22
  %12 = add i64 %10, %.05
  %13 = sub i64 %12, %11
  %14 = call i32 @ossl_sframe_list_peek(ptr noundef %0, ptr noundef nonnull %4, ptr noundef nonnull %5, ptr noundef nonnull %6, ptr noundef %2) #10
  %.not = icmp eq i32 %14, 0
  br i1 %.not, label %._crit_edge, label %9, !llvm.loop !30

._crit_edge:                                      ; preds = %9, %3
  %.0.lcssa = phi i64 [ 0, %3 ], [ %13, %9 ]
  store i64 %.0.lcssa, ptr %1, align 8, !tbaa !24
  call void @llvm.lifetime.end.p0(i64 8, ptr nonnull %6) #10
  call void @llvm.lifetime.end.p0(i64 16, ptr nonnull %5) #10
  call void @llvm.lifetime.end.p0(i64 8, ptr nonnull %4) #10
  ret i32 1
}